target datalayout = "e-m:e-p270:32:32-p271:32:32-p272:64:64-i64:64-i128:128-f80:128-n8:16:32:64-S128"
target triple = "x86_64-pc-linux-gnu"

%struct.Vec_Int_t_ = type { i32, i32, ptr }

; Function Attrs: nounwind uwtable
define void @Abc_GenChaseNext(ptr noundef %0, ptr noundef %1, ptr noundef %2) #0 {
  %4 = alloca ptr, align 8
  %5 = alloca ptr, align 8
  %6 = alloca ptr, align 8
  %7 = alloca i32, align 4
  %8 = alloca i32, align 4
  %9 = alloca i32, align 4
  %10 = alloca i32, align 4
  %11 = alloca i32, align 4
  %12 = alloca i32, align 4
  store ptr %0, ptr %4, align 8, !tbaa !17
  store ptr %1, ptr %5, align 8, !tbaa !17
  store ptr %2, ptr %6, align 8, !tbaa !17
  call void @llvm.lifetime.start.p0(i64 4, ptr %7) #12
  store i32 0, ptr %7, align 4, !tbaa !8
  call void @llvm.lifetime.start.p0(i64 4, ptr %8) #12
  %13 = load ptr, ptr %6, align 8, !tbaa !17
  %14 = load i32, ptr %13, align 4, !tbaa !8
  store i32 %14, ptr %8, align 4, !tbaa !8
  br label %15

15:                                               ; preds = %116, %3
  %16 = load ptr, ptr %5, align 8, !tbaa !17
  %17 = load i32, ptr %8, align 4, !tbaa !8
  %18 = sext i32 %17 to i64
  %19 = getelementptr inbounds i32, ptr %16, i64 %18
  %20 = load i32, ptr %19, align 4, !tbaa !8
  %21 = icmp ne i32 %20, 0
  %22 = xor i1 %21, true
  br i1 %22, label %23, label %119

23:                                               ; preds = %15
  call void @llvm.lifetime.start.p0(i64 4, ptr %9) #12
  %24 = load ptr, ptr %4, align 8, !tbaa !17
  %25 = load i32, ptr %8, align 4, !tbaa !8
  %26 = sext i32 %25 to i64
  %27 = getelementptr inbounds i32, ptr %24, i64 %26
  %28 = load i32, ptr %27, align 4, !tbaa !8
  %29 = add nsw i32 %28, 1
  store i32 %29, ptr %9, align 4, !tbaa !8
  call void @llvm.lifetime.start.p0(i64 4, ptr %10) #12
  %30 = load ptr, ptr %4, align 8, !tbaa !17
  %31 = load i32, ptr %8, align 4, !tbaa !8
  %32 = add nsw i32 %31, 1
  %33 = sext i32 %32 to i64
  %34 = getelementptr inbounds i32, ptr %30, i64 %33
  %35 = load i32, ptr %34, align 4, !tbaa !8
  store i32 %35, ptr %10, align 4, !tbaa !8
  %36 = load i32, ptr %9, align 4, !tbaa !8
  %37 = load ptr, ptr %5, align 8, !tbaa !17
  %38 = load i32, ptr %8, align 4, !tbaa !8
  %39 = add nsw i32 %38, 1
  %40 = sext i32 %39 to i64
  %41 = getelementptr inbounds i32, ptr %37, i64 %40
  %42 = load i32, ptr %41, align 4, !tbaa !8
  %43 = icmp ne i32 %42, 0
  br i1 %43, label %44, label %50

44:                                               ; preds = %23
  %45 = load i32, ptr %10, align 4, !tbaa !8
  %46 = load i32, ptr %10, align 4, !tbaa !8
  %47 = and i32 %46, 1
  %48 = sub nsw i32 2, %47
  %49 = sub nsw i32 %45, %48
  br label %52

50:                                               ; preds = %23
  %51 = load i32, ptr %10, align 4, !tbaa !8
  br label %52

52:                                               ; preds = %50, %44
  %53 = phi i32 [ %49, %44 ], [ %51, %50 ]
  %54 = icmp slt i32 %36, %53
  br i1 %54, label %55, label %86

55:                                               ; preds = %52
  %56 = load i32, ptr %9, align 4, !tbaa !8
  %57 = and i32 %56, 1
  %58 = icmp eq i32 %57, 0
  br i1 %58, label %59, label %67

59:                                               ; preds = %55
  %60 = load i32, ptr %9, align 4, !tbaa !8
  %61 = add nsw i32 %60, 1
  %62 = load i32, ptr %10, align 4, !tbaa !8
  %63 = icmp slt i32 %61, %62
  br i1 %63, label %64, label %67

64:                                               ; preds = %59
  %65 = load i32, ptr %9, align 4, !tbaa !8
  %66 = add nsw i32 %65, 1
  store i32 %66, ptr %9, align 4, !tbaa !8
  br label %67

67:                                               ; preds = %64, %59, %55
  %68 = load i32, ptr %9, align 4, !tbaa !8
  %69 = load ptr, ptr %4, align 8, !tbaa !17
  %70 = load i32, ptr %8, align 4, !tbaa !8
  %71 = sext i32 %70 to i64
  %72 = getelementptr inbounds i32, ptr %69, i64 %71
  store i32 %68, ptr %72, align 4, !tbaa !8
  %73 = load i32, ptr %7, align 4, !tbaa !8
  %74 = icmp ne i32 %73, 0
  br i1 %74, label %85, label %75

75:                                               ; preds = %67
  %76 = load i32, ptr %8, align 4, !tbaa !8
  %77 = icmp sgt i32 %76, 1
  br i1 %77, label %78, label %81

78:                                               ; preds = %75
  %79 = load i32, ptr %8, align 4, !tbaa !8
  %80 = sub nsw i32 %79, 1
  br label %82

81:                                               ; preds = %75
  br label %82

82:                                               ; preds = %81, %78
  %83 = phi i32 [ %80, %78 ], [ 0, %81 ]
  %84 = load ptr, ptr %6, align 8, !tbaa !17
  store i32 %83, ptr %84, align 4, !tbaa !8
  br label %85

85:                                               ; preds = %82, %67
  store i32 1, ptr %11, align 4
  br label %113

86:                                               ; preds = %52
  %87 = load ptr, ptr %4, align 8, !tbaa !17
  %88 = load i32, ptr %8, align 4, !tbaa !8
  %89 = sext i32 %88 to i64
  %90 = getelementptr inbounds i32, ptr %87, i64 %89
  %91 = load i32, ptr %90, align 4, !tbaa !8
  %92 = sub nsw i32 %91, 1
  %93 = load i32, ptr %8, align 4, !tbaa !8
  %94 = icmp sge i32 %92, %93
  %95 = zext i1 %94 to i32
  %96 = load ptr, ptr %5, align 8, !tbaa !17
  %97 = load i32, ptr %8, align 4, !tbaa !8
  %98 = sext i32 %97 to i64
  %99 = getelementptr inbounds i32, ptr %96, i64 %98
  store i32 %95, ptr %99, align 4, !tbaa !8
  %100 = load ptr, ptr %5, align 8, !tbaa !17
  %101 = load i32, ptr %8, align 4, !tbaa !8
  %102 = sext i32 %101 to i64
  %103 = getelementptr inbounds i32, ptr %100, i64 %102
  %104 = load i32, ptr %103, align 4, !tbaa !8
  %105 = icmp ne i32 %104, 0
  br i1 %105, label %106, label %112

106:                                              ; preds = %86
  %107 = load i32, ptr %7, align 4, !tbaa !8
  %108 = icmp ne i32 %107, 0
  br i1 %108, label %112, label %109

109:                                              ; preds = %106
  %110 = load i32, ptr %8, align 4, !tbaa !8
  %111 = load ptr, ptr %6, align 8, !tbaa !17
  store i32 %110, ptr %111, align 4, !tbaa !8
  store i32 1, ptr %7, align 4, !tbaa !8
  br label %112

112:                                              ; preds = %109, %106, %86
  store i32 0, ptr %11, align 4
  br label %113

113:                                              ; preds = %112, %85
  call void @llvm.lifetime.end.p0(i64 4, ptr %10) #12
  call void @llvm.lifetime.end.p0(i64 4, ptr %9) #12
  %114 = load i32, ptr %11, align 4
  switch i32 %114, label %158 [
    i32 0, label %115
  ]

115:                                              ; preds = %113
  br label %116

116:                                              ; preds = %115
  %117 = load i32, ptr %8, align 4, !tbaa !8
  %118 = add nsw i32 %117, 1
  store i32 %118, ptr %8, align 4, !tbaa !8
  br label %15, !llvm.loop !76

119:                                              ; preds = %15
  call void @llvm.lifetime.start.p0(i64 4, ptr %12) #12
  %120 = load ptr, ptr %4, align 8, !tbaa !17
  %121 = load i32, ptr %8, align 4, !tbaa !8
  %122 = sext i32 %121 to i64
  %123 = getelementptr inbounds i32, ptr %120, i64 %122
  %124 = load i32, ptr %123, align 4, !tbaa !8
  %125 = sub nsw i32 %124, 1
  store i32 %125, ptr %12, align 4, !tbaa !8
  %126 = load i32, ptr %12, align 4, !tbaa !8
  %127 = and i32 %126, 1
  %128 = icmp ne i32 %127, 0
  br i1 %128, label %129, label %137

129:                                              ; preds = %119
  %130 = load i32, ptr %12, align 4, !tbaa !8
  %131 = sub nsw i32 %130, 1
  %132 = load i32, ptr %8, align 4, !tbaa !8
  %133 = icmp sge i32 %131, %132
  br i1 %133, label %134, label %137

134:                                              ; preds = %129
  %135 = load i32, ptr %12, align 4, !tbaa !8
  %136 = add nsw i32 %135, -1
  store i32 %136, ptr %12, align 4, !tbaa !8
  br label %137

137:                                              ; preds = %134, %129, %119
  %138 = load i32, ptr %12, align 4, !tbaa !8
  %139 = load ptr, ptr %4, align 8, !tbaa !17
  %140 = load i32, ptr %8, align 4, !tbaa !8
  %141 = sext i32 %140 to i64
  %142 = getelementptr inbounds i32, ptr %139, i64 %141
  store i32 %138, ptr %142, align 4, !tbaa !8
  %143 = load i32, ptr %12, align 4, !tbaa !8
  %144 = sub nsw i32 %143, 1
  %145 = load i32, ptr %8, align 4, !tbaa !8
  %146 = icmp sge i32 %144, %145
  %147 = zext i1 %146 to i32
  %148 = load ptr, ptr %5, align 8, !tbaa !17
  %149 = load i32, ptr %8, align 4, !tbaa !8
  %150 = sext i32 %149 to i64
  %151 = getelementptr inbounds i32, ptr %148, i64 %150
  store i32 %147, ptr %151, align 4, !tbaa !8
  %152 = load i32, ptr %7, align 4, !tbaa !8
  %153 = icmp ne i32 %152, 0
  br i1 %153, label %157, label %154

154:                                              ; preds = %137
  %155 = load i32, ptr %8, align 4, !tbaa !8
  %156 = load ptr, ptr %6, align 8, !tbaa !17
  store i32 %155, ptr %156, align 4, !tbaa !8
  br label %157

157:                                              ; preds = %154, %137
  call void @llvm.lifetime.end.p0(i64 4, ptr %12) #12
  store i32 0, ptr %11, align 4
  br label %158

158:                                              ; preds = %157, %113
  call void @llvm.lifetime.end.p0(i64 4, ptr %8) #12
  call void @llvm.lifetime.end.p0(i64 4, ptr %7) #12
  %159 = load i32, ptr %11, align 4
  switch i32 %159, label %161 [
    i32 0, label %160
    i32 1, label %160
  ]

160:                                              ; preds = %158, %158
  ret void

161:                                              ; preds = %158
  unreachable
}

; Function Attrs: inlinehint nounwind uwtable
define internal ptr @Vec_IntAlloc(i32 noundef %0) #3 {
  %2 = alloca i32, align 4
  %3 = alloca ptr, align 8
  store i32 %0, ptr %2, align 4, !tbaa !8
  call void @llvm.lifetime.start.p0(i64 8, ptr %3) #12
  %4 = call noalias ptr @malloc(i64 noundef 16) #14
  store ptr %4, ptr %3, align 8, !tbaa !19
  %5 = load i32, ptr %2, align 4, !tbaa !8
  %6 = icmp sgt i32 %5, 0
  br i1 %6, label %7, label %11

7:                                                ; preds = %1
  %8 = load i32, ptr %2, align 4, !tbaa !8
  %9 = icmp slt i32 %8, 16
  br i1 %9, label %10, label %11

10:                                               ; preds = %7
  store i32 16, ptr %2, align 4, !tbaa !8
  br label %11

11:                                               ; preds = %10, %7, %1
  %12 = load ptr, ptr %3, align 8, !tbaa !19
  %13 = getelementptr inbounds nuw %struct.Vec_Int_t_, ptr %12, i32 0, i32 1
  store i32 0, ptr %13, align 4, !tbaa !26
  %14 = load i32, ptr %2, align 4, !tbaa !8
  %15 = load ptr, ptr %3, align 8, !tbaa !19
  %16 = getelementptr inbounds nuw %struct.Vec_Int_t_, ptr %15, i32 0, i32 0
  store i32 %14, ptr %16, align 8, !tbaa !28
  %17 = load ptr, ptr %3, align 8, !tbaa !19
  %18 = getelementptr inbounds nuw %struct.Vec_Int_t_, ptr %17, i32 0, i32 0
  %19 = load i32, ptr %18, align 8, !tbaa !28
  %20 = icmp ne i32 %19, 0
  br i1 %20, label %21, label %28

21:                                               ; preds = %11
  %22 = load ptr, ptr %3, align 8, !tbaa !19
  %23 = getelementptr inbounds nuw %struct.Vec_Int_t_, ptr %22, i32 0, i32 0
  %24 = load i32, ptr %23, align 8, !tbaa !28
  %25 = sext i32 %24 to i64
  %26 = mul i64 4, %25
  %27 = call noalias ptr @malloc(i64 noundef %26) #14
  br label %29

28:                                               ; preds = %11
  br label %29

29:                                               ; preds = %28, %21
  %30 = phi ptr [ %27, %21 ], [ null, %28 ]
  %31 = load ptr, ptr %3, align 8, !tbaa !19
  %32 = getelementptr inbounds nuw %struct.Vec_Int_t_, ptr %31, i32 0, i32 2
  store ptr %30, ptr %32, align 8, !tbaa !29
  %33 = load ptr, ptr %3, align 8, !tbaa !19
  call void @llvm.lifetime.end.p0(i64 8, ptr %3) #12
  ret ptr %33
}

; Function Attrs: nounwind uwtable
define ptr @Abc_GenChasePairs(i32 noundef %0, i32 noundef %1) #0 {
  %3 = alloca i32, align 4
  %4 = alloca i32, align 4
  %5 = alloca ptr, align 8
  %6 = alloca i32, align 4
  %7 = alloca i32, align 4
  %8 = alloca i32, align 4
  %9 = alloca i32, align 4
  %10 = alloca [32 x i32], align 16
  %11 = alloca [32 x i32], align 16
  %12 = alloca [32 x i32], align 16
  store i32 %0, ptr %3, align 4, !tbaa !8
  store i32 %1, ptr %4, align 4, !tbaa !8
  call void @llvm.lifetime.start.p0(i64 8, ptr %5) #12
  %13 = call ptr @Vec_IntAlloc(i32 noundef 100)
  store ptr %13, ptr %5, align 8, !tbaa !19
  call void @llvm.lifetime.start.p0(i64 4, ptr %6) #12
  call void @llvm.lifetime.start.p0(i64 4, ptr %7) #12
  call void @llvm.lifetime.start.p0(i64 4, ptr %8) #12
  store i32 0, ptr %8, align 4, !tbaa !8
  call void @llvm.lifetime.start.p0(i64 4, ptr %9) #12
  store i32 0, ptr %9, align 4, !tbaa !8
  call void @llvm.lifetime.start.p0(i64 128, ptr %10) #12
  call void @llvm.lifetime.start.p0(i64 128, ptr %11) #12
  call void @llvm.lifetime.start.p0(i64 128, ptr %12) #12
  store i32 0, ptr %6, align 4, !tbaa !8
  br label %14

14:                                               ; preds = %31, %2
  %15 = load i32, ptr %6, align 4, !tbaa !8
  %16 = load i32, ptr %4, align 4, !tbaa !8
  %17 = add nsw i32 %16, 1
  %18 = icmp slt i32 %15, %17
  br i1 %18, label %19, label %34

19:                                               ; preds = %14
  %20 = load i32, ptr %3, align 4, !tbaa !8
  %21 = load i32, ptr %4, align 4, !tbaa !8
  %22 = load i32, ptr %6, align 4, !tbaa !8
  %23 = sub nsw i32 %21, %22
  %24 = sub nsw i32 %20, %23
  %25 = load i32, ptr %6, align 4, !tbaa !8
  %26 = sext i32 %25 to i64
  %27 = getelementptr inbounds [32 x i32], ptr %10, i64 0, i64 %26
  store i32 %24, ptr %27, align 4, !tbaa !8
  %28 = load i32, ptr %6, align 4, !tbaa !8
  %29 = sext i32 %28 to i64
  %30 = getelementptr inbounds [32 x i32], ptr %12, i64 0, i64 %29
  store i32 1, ptr %30, align 4, !tbaa !8
  br label %31

31:                                               ; preds = %19
  %32 = load i32, ptr %6, align 4, !tbaa !8
  %33 = add nsw i32 %32, 1
  store i32 %33, ptr %6, align 4, !tbaa !8
  br label %14, !llvm.loop !77

34:                                               ; preds = %14
  br label %35

35:                                               ; preds = %83, %34
  store i32 0, ptr %7, align 4, !tbaa !8
  br label %36

36:                                               ; preds = %48, %35
  %37 = load i32, ptr %7, align 4, !tbaa !8
  %38 = load i32, ptr %4, align 4, !tbaa !8
  %39 = icmp sle i32 %37, %38
  br i1 %39, label %40, label %51

40:                                               ; preds = %36
  %41 = load i32, ptr %7, align 4, !tbaa !8
  %42 = sext i32 %41 to i64
  %43 = getelementptr inbounds [32 x i32], ptr %10, i64 0, i64 %42
  %44 = load i32, ptr %43, align 4, !tbaa !8
  %45 = load i32, ptr %7, align 4, !tbaa !8
  %46 = sext i32 %45 to i64
  %47 = getelementptr inbounds [32 x i32], ptr %11, i64 0, i64 %46
  store i32 %44, ptr %47, align 4, !tbaa !8
  br label %48

48:                                               ; preds = %40
  %49 = load i32, ptr %7, align 4, !tbaa !8
  %50 = add nsw i32 %49, 1
  store i32 %50, ptr %7, align 4, !tbaa !8
  br label %36, !llvm.loop !78

51:                                               ; preds = %36
  %52 = getelementptr inbounds [32 x i32], ptr %10, i64 0, i64 0
  %53 = getelementptr inbounds [32 x i32], ptr %12, i64 0, i64 0
  call void @Abc_GenChaseNext(ptr noundef %52, ptr noundef %53, ptr noundef %8)
  store i32 0, ptr %7, align 4, !tbaa !8
  br label %54

54:                                               ; preds = %79, %51
  %55 = load i32, ptr %7, align 4, !tbaa !8
  %56 = load i32, ptr %4, align 4, !tbaa !8
  %57 = icmp slt i32 %55, %56
  br i1 %57, label %58, label %82

58:                                               ; preds = %54
  %59 = load i32, ptr %7, align 4, !tbaa !8
  %60 = sext i32 %59 to i64
  %61 = getelementptr inbounds [32 x i32], ptr %10, i64 0, i64 %60
  %62 = load i32, ptr %61, align 4, !tbaa !8
  %63 = load i32, ptr %7, align 4, !tbaa !8
  %64 = sext i32 %63 to i64
  %65 = getelementptr inbounds [32 x i32], ptr %11, i64 0, i64 %64
  %66 = load i32, ptr %65, align 4, !tbaa !8
  %67 = icmp eq i32 %62, %66
  br i1 %67, label %68, label %69

68:                                               ; preds = %58
  br label %79

69:                                               ; preds = %58
  %70 = load ptr, ptr %5, align 8, !tbaa !19
  %71 = load i32, ptr %7, align 4, !tbaa !8
  %72 = sext i32 %71 to i64
  %73 = getelementptr inbounds [32 x i32], ptr %11, i64 0, i64 %72
  %74 = load i32, ptr %73, align 4, !tbaa !8
  %75 = load i32, ptr %7, align 4, !tbaa !8
  %76 = sext i32 %75 to i64
  %77 = getelementptr inbounds [32 x i32], ptr %10, i64 0, i64 %76
  %78 = load i32, ptr %77, align 4, !tbaa !8
  call void @Vec_IntPushTwo(ptr noundef %70, i32 noundef %74, i32 noundef %78)
  br label %82

79:                                               ; preds = %68
  %80 = load i32, ptr %7, align 4, !tbaa !8
  %81 = add nsw i32 %80, 1
  store i32 %81, ptr %7, align 4, !tbaa !8
  br label %54, !llvm.loop !79

82:                                               ; preds = %69, %54
  br label %83

83:                                               ; preds = %82
  %84 = load i32, ptr %4, align 4, !tbaa !8
  %85 = sext i32 %84 to i64
  %86 = getelementptr inbounds [32 x i32], ptr %10, i64 0, i64 %85
  %87 = load i32, ptr %86, align 4, !tbaa !8
  %88 = load i32, ptr %3, align 4, !tbaa !8
  %89 = icmp eq i32 %87, %88
  br i1 %89, label %35, label %90, !llvm.loop !80

90:                                               ; preds = %83
  %91 = load ptr, ptr %5, align 8, !tbaa !19
  call void @Vec_IntPushTwo(ptr noundef %91, i32 noundef 0, i32 noundef 0)
  %92 = load ptr, ptr %5, align 8, !tbaa !19
  call void @llvm.lifetime.end.p0(i64 128, ptr %12) #12
  call void @llvm.lifetime.end.p0(i64 128, ptr %11) #12
  call void @llvm.lifetime.end.p0(i64 128, ptr %10) #12
  call void @llvm.lifetime.end.p0(i64 4, ptr %9) #12
  call void @llvm.lifetime.end.p0(i64 4, ptr %8) #12
  call void @llvm.lifetime.end.p0(i64 4, ptr %7) #12
  call void @llvm.lifetime.end.p0(i64 4, ptr %6) #12
  call void @llvm.lifetime.end.p0(i64 8, ptr %5) #12
  ret ptr %92
}