; Function Attrs: nounwind uwtable
define noalias noundef ptr @Abc_GenChasePairs(i32 noundef %0, i32 noundef %1) local_unnamed_addr #3 {
  %3 = alloca [32 x i32], align 16
  %4 = alloca [32 x i32], align 16
  %5 = alloca [32 x i32], align 16
  %6 = tail call noalias dereferenceable_or_null(16) ptr @malloc(i64 noundef 16) #26
  %7 = getelementptr inbounds nuw i8, ptr %6, i64 4
  store i32 0, ptr %7, align 4, !tbaa !14
  store i32 100, ptr %6, align 8, !tbaa !20
  %8 = tail call noalias dereferenceable_or_null(400) ptr @malloc(i64 noundef 400) #26
  %9 = getelementptr inbounds nuw i8, ptr %6, i64 8
  store ptr %8, ptr %9, align 8, !tbaa !18
  call void @llvm.lifetime.start.p0(i64 128, ptr nonnull %3) #24
  call void @llvm.lifetime.start.p0(i64 128, ptr nonnull %4) #24
  call void @llvm.lifetime.start.p0(i64 128, ptr nonnull %5) #24
  %.not48 = icmp slt i32 %1, 0
  br i1 %.not48, label %..preheader_crit_edge, label %.lr.ph

..preheader_crit_edge:                            ; preds = %2
  %.pre81 = add nsw i32 %1, 1
  %.pre82 = zext i32 %.pre81 to i64
  br label %.preheader

.lr.ph:                                           ; preds = %2
  %.neg = sub i32 %0, %1
  %10 = add nuw i32 %1, 1
  %wide.trip.count = zext i32 %10 to i64
  br label %15

.preheader:                                       ; preds = %15, %..preheader_crit_edge
  %.pre-phi83 = phi i64 [ %.pre82, %..preheader_crit_edge ], [ %wide.trip.count, %15 ]
  %11 = icmp sgt i32 %1, 0
  %12 = sext i32 %1 to i64
  %13 = getelementptr inbounds [32 x i32], ptr %3, i64 0, i64 %12
  %14 = shl nuw nsw i64 %.pre-phi83, 2
  %wide.trip.count77 = zext nneg i32 %1 to i64
  br label %20

15:                                               ; preds = %.lr.ph, %15
  %indvars.iv = phi i64 [ 0, %.lr.ph ], [ %indvars.iv.next, %15 ]
  %16 = trunc nuw nsw i64 %indvars.iv to i32
  %17 = add i32 %.neg, %16
  %18 = getelementptr inbounds nuw [32 x i32], ptr %3, i64 0, i64 %indvars.iv
  store i32 %17, ptr %18, align 4, !tbaa !7
  %19 = getelementptr inbounds nuw [32 x i32], ptr %5, i64 0, i64 %indvars.iv
  store i32 1, ptr %19, align 4, !tbaa !7
  %indvars.iv.next = add nuw nsw i64 %indvars.iv, 1
  %exitcond.not = icmp eq i64 %indvars.iv.next, %wide.trip.count
  br i1 %exitcond.not, label %.preheader, label %15, !llvm.loop !64

20:                                               ; preds = %.preheader, %.loopexit
  %.029 = phi i32 [ %.4, %.loopexit ], [ 0, %.preheader ]
  br i1 %.not48, label %._crit_edge, label %.lr.ph52.preheader

.lr.ph52.preheader:                               ; preds = %20
  call void @llvm.memcpy.p0.p0.i64(ptr nonnull align 16 %4, ptr nonnull align 16 %3, i64 %14, i1 false), !tbaa !7
  br label %._crit_edge

._crit_edge:                                      ; preds = %.lr.ph52.preheader, %20
  %21 = sext i32 %.029 to i64
  %22 = getelementptr inbounds i32, ptr %5, i64 %21
  %23 = load i32, ptr %22, align 4, !tbaa !7
  %.not77.i = icmp eq i32 %23, 0
  %.phi.trans.insert = getelementptr inbounds i32, ptr %3, i64 %21
  %.pre = load i32, ptr %.phi.trans.insert, align 4, !tbaa !7
  br i1 %.not77.i, label %.lr.ph.i, label %._crit_edge.i

.lr.ph.i:                                         ; preds = %._crit_edge, %42
  %24 = phi i32 [ %28, %42 ], [ %.pre, %._crit_edge ]
  %.2 = phi i32 [ %spec.select, %42 ], [ %.029, %._crit_edge ]
  %indvars.iv.i = phi i64 [ %indvars.iv.next.i, %42 ], [ %21, %._crit_edge ]
  %25 = phi ptr [ %29, %42 ], [ %22, %._crit_edge ]
  %.05379.i = phi i32 [ %spec.select31, %42 ], [ 0, %._crit_edge ]
  %26 = add nsw i32 %24, 1
  %indvars.iv.next.i = add nsw i64 %indvars.iv.i, 1
  %27 = getelementptr inbounds i32, ptr %3, i64 %indvars.iv.next.i
  %28 = load i32, ptr %27, align 4, !tbaa !7
  %29 = getelementptr inbounds i32, ptr %5, i64 %indvars.iv.next.i
  %30 = load i32, ptr %29, align 4, !tbaa !7
  %.not61.i = icmp eq i32 %30, 0
  %.neg.i = or i32 %28, -2
  %31 = select i1 %.not61.i, i32 0, i32 %.neg.i
  %32 = add i32 %31, %28
  %.not65.i = icmp slt i32 %26, %32
  br i1 %.not65.i, label %33, label %42

33:                                               ; preds = %.lr.ph.i
  %34 = getelementptr inbounds i32, ptr %3, i64 %indvars.iv.i
  %35 = and i32 %24, 1
  %.not63.i = icmp eq i32 %35, 0
  %36 = add nsw i32 %24, 2
  %37 = icmp slt i32 %36, %28
  %spec.select.i = select i1 %37, i32 %36, i32 %26
  %.054.i = select i1 %.not63.i, i32 %26, i32 %spec.select.i
  store i32 %.054.i, ptr %34, align 4, !tbaa !7
  %.not64.i = icmp eq i32 %.05379.i, 0
  br i1 %.not64.i, label %38, label %Abc_GenChaseNext.exit

38:                                               ; preds = %33
  %39 = trunc nsw i64 %indvars.iv.i to i32
  %40 = tail call i32 @llvm.smax.i32(i32 %39, i32 1)
  %41 = add nsw i32 %40, -1
  br label %Abc_GenChaseNext.exit

42:                                               ; preds = %.lr.ph.i
  %43 = sext i32 %24 to i64
  %44 = icmp slt i64 %indvars.iv.i, %43
  %45 = zext i1 %44 to i32
  store i32 %45, ptr %25, align 4, !tbaa !7
  %46 = icmp eq i32 %.05379.i, 0
  %or.cond.not.i = select i1 %44, i1 %46, i1 false
  %47 = trunc nsw i64 %indvars.iv.i to i32
  %spec.select = select i1 %or.cond.not.i, i32 %47, i32 %.2
  %spec.select31 = select i1 %or.cond.not.i, i32 1, i32 %.05379.i
  %48 = load i32, ptr %29, align 4, !tbaa !7
  %.not.i = icmp eq i32 %48, 0
  br i1 %.not.i, label %.lr.ph.i, label %._crit_edge.loopexit.i

._crit_edge.loopexit.i:                           ; preds = %42
  %49 = trunc nsw i64 %indvars.iv.next.i to i32
  %50 = icmp eq i32 %spec.select31, 0
  %51 = select i1 %50, i32 %49, i32 %spec.select
  br label %._crit_edge.i

._crit_edge.i:                                    ; preds = %._crit_edge, %._crit_edge.loopexit.i
  %52 = phi i32 [ %28, %._crit_edge.loopexit.i ], [ %.pre, %._crit_edge ]
  %.055.lcssa.i = phi i32 [ %49, %._crit_edge.loopexit.i ], [ %.029, %._crit_edge ]
  %.053.lcssa.i = phi i32 [ %51, %._crit_edge.loopexit.i ], [ %.029, %._crit_edge ]
  %.lcssa68.i = phi i64 [ %indvars.iv.next.i, %._crit_edge.loopexit.i ], [ %21, %._crit_edge ]
  %.lcssa.i = phi ptr [ %29, %._crit_edge.loopexit.i ], [ %22, %._crit_edge ]
  %53 = getelementptr inbounds i32, ptr %3, i64 %.lcssa68.i
  %54 = add nsw i32 %52, -1
  %55 = and i32 %54, 1
  %.not58.i = icmp eq i32 %55, 0
  %56 = add nsw i32 %52, -2
  %.not59.i = icmp slt i32 %56, %.055.lcssa.i
  %or.cond.i = select i1 %.not58.i, i1 true, i1 %.not59.i
  %.0.i = select i1 %or.cond.i, i32 %54, i32 %56
  store i32 %.0.i, ptr %53, align 4, !tbaa !7
  %57 = icmp sgt i32 %.0.i, %.055.lcssa.i
  %58 = zext i1 %57 to i32
  store i32 %58, ptr %.lcssa.i, align 4, !tbaa !7
  br label %Abc_GenChaseNext.exit

Abc_GenChaseNext.exit:                            ; preds = %._crit_edge.i, %38, %33
  %.4 = phi i32 [ %.2, %33 ], [ %41, %38 ], [ %.053.lcssa.i, %._crit_edge.i ]
  br i1 %11, label %.lr.ph55, label %.loopexit

59:                                               ; preds = %.lr.ph55
  %indvars.iv.next75 = add nuw nsw i64 %indvars.iv74, 1
  %exitcond78.not = icmp eq i64 %indvars.iv.next75, %wide.trip.count77
  br i1 %exitcond78.not, label %.loopexit, label %.lr.ph55, !llvm.loop !65

.lr.ph55:                                         ; preds = %Abc_GenChaseNext.exit, %59
  %indvars.iv74 = phi i64 [ %indvars.iv.next75, %59 ], [ 0, %Abc_GenChaseNext.exit ]
  %60 = getelementptr inbounds nuw [32 x i32], ptr %3, i64 0, i64 %indvars.iv74
  %61 = load i32, ptr %60, align 4, !tbaa !7
  %62 = getelementptr inbounds nuw [32 x i32], ptr %4, i64 0, i64 %indvars.iv74
  %63 = load i32, ptr %62, align 4, !tbaa !7
  %64 = icmp eq i32 %61, %63
  br i1 %64, label %59, label %65

65:                                               ; preds = %.lr.ph55
  tail call fastcc void @Vec_IntPushTwo(ptr noundef nonnull %6, i32 noundef %63, i32 noundef %61)
  br label %.loopexit

.loopexit:                                        ; preds = %59, %Abc_GenChaseNext.exit, %65
  %66 = load i32, ptr %13, align 4, !tbaa !7
  %67 = icmp eq i32 %66, %0
  br i1 %67, label %20, label %68, !llvm.loop !66

68:                                               ; preds = %.loopexit
  tail call fastcc void @Vec_IntPushTwo(ptr noundef nonnull %6, i32 noundef 0, i32 noundef 0)
  call void @llvm.lifetime.end.p0(i64 128, ptr nonnull %5) #24
  call void @llvm.lifetime.end.p0(i64 128, ptr nonnull %4) #24
  call void @llvm.lifetime.end.p0(i64 128, ptr nonnull %3) #24
  ret ptr %6
}